#include <math.h>
#include <stdio.h>
#include <stdlib.h>
#include <string.h>

void main()
{
	int a[300],n,i,j,max=0;
	scanf("%d",&n);
	for(i=0;i<n;i++)
	{
		scanf("%d",&a[i]);
		max=a[i]>max?a[i]:max;
	}
	for(i=0;i<n;i++)
		if(a[i]<=max)
			for(j=i+1;j<n;j++)
				if(a[j]==a[i]) a[j]=max+1;
	for(i=0;i<n;i++)
		if(a[i]<=max)
		{
			printf("%d",a[i]);
			break;
		}
	for(j=i+1;j<n;j++)
		if(a[j]<=max)
			printf(",%d",a[j]);
}
